(dp1
S'layout'
p2
(ilayout
Layout
p3
(dp4
S'capsules'
p5
(lp6
sS'numGhosts'
p7
I4
sS'food'
p8
(igame
Grid
p9
(dp10
S'CELLS_PER_INT'
p11
I30
sS'width'
p12
I34
sS'data'
p13
(lp14
(lp15
I00
aI00
aI00
aI00
aI00
aI00
aI00
aI00
aI00
aI00
aI00
aI00
aI00
aI00
aI00
aI00
aI00
aI00
aa(lp16
I00
aI00
aI00
aI00
aI00
aI01
aI00
aI00
aI00
aI00
aI00
aI01
aI00
aI01
aI01
aI00
aI01
aI00
aa(lp17
I00
aI00
aI00
aI00
aI00
aI00
aI00
aI00
aI00
aI00
aI00
aI00
aI00
aI00
aI00
aI00
aI01
aI00
aa(lp18
I00
aI00
aI00
aI00
aI00
aI00
aI00
aI00
aI00
aI01
aI00
aI00
aI00
aI00
aI01
aI00
aI01
aI00
aa(lp19
I00
aI00
aI00
aI00
aI00
aI00
aI00
aI00
aI00
aI00
aI01
aI00
aI00
aI01
aI00
aI00
aI00
aI00
aa(lp20
I00
aI00
aI00
aI00
aI00
aI00
aI00
aI00
aI00
aI00
aI00
aI00
aI00
aI00
aI00
aI00
aI00
aI00
aa(lp21
I00
aI01
aI00
aI00
aI00
aI00
aI00
aI01
aI00
aI00
aI00
aI00
aI00
aI00
aI00
aI00
aI00
aI00
aa(lp22
I00
aI00
aI00
aI00
aI00
aI00
aI00
aI00
aI00
aI00
aI00
aI00
aI00
aI00
aI00
aI00
aI00
aI00
aa(lp23
I00
aI00
aI00
aI00
aI00
aI01
aI00
aI00
aI00
aI01
aI00
aI00
aI00
aI00
aI00
aI00
aI00
aI00
aa(lp24
I00
aI01
aI00
aI00
aI00
aI01
aI00
aI00
aI00
aI00
aI00
aI00
aI00
aI00
aI00
aI00
aI00
aI00
aa(lp25
I00
aI00
aI00
aI00
aI00
aI00
aI00
aI00
aI00
aI00
aI00
aI00
aI00
aI00
aI00
aI00
aI00
aI00
aa(lp26
I00
aI00
aI01
aI00
aI00
aI00
aI00
aI00
aI00
aI00
aI00
aI00
aI00
aI00
aI00
aI00
aI01
aI00
aa(lp27
I00
aI00
aI00
aI00
aI01
aI00
aI00
aI00
aI00
aI01
aI00
aI00
aI00
aI01
aI00
aI00
aI00
aI00
aa(lp28
I00
aI00
aI00
aI00
aI00
aI00
aI00
aI00
aI00
aI00
aI00
aI00
aI00
aI00
aI00
aI00
aI00
aI00
aa(lp29
I00
aI01
aI01
aI00
aI00
aI00
aI00
aI00
aI01
aI01
aI00
aI00
aI00
aI00
aI00
aI00
aI00
aI00
aa(lp30
I00
aI00
aI00
aI00
aI00
aI00
aI00
aI00
aI00
aI00
aI00
aI00
aI00
aI00
aI00
aI00
aI00
aI00
aa(lp31
I00
aI00
aI00
aI01
aI01
aI00
aI00
aI00
aI00
aI00
aI00
aI00
aI00
aI00
aI01
aI01
aI00
aI00
aa(lp32
I00
aI00
aI01
aI01
aI00
aI00
aI00
aI00
aI00
aI00
aI00
aI00
aI00
aI01
aI01
aI00
aI00
aI00
aa(lp33
I00
aI00
aI00
aI00
aI00
aI00
aI00
aI00
aI00
aI00
aI00
aI00
aI00
aI00
aI00
aI00
aI00
aI00
aa(lp34
I00
aI00
aI00
aI00
aI00
aI00
aI00
aI00
aI01
aI01
aI00
aI00
aI00
aI00
aI00
aI01
aI01
aI00
aa(lp35
I00
aI00
aI00
aI00
aI00
aI00
aI00
aI00
aI00
aI00
aI00
aI00
aI00
aI00
aI00
aI00
aI00
aI00
aa(lp36
I00
aI00
aI00
aI00
aI01
aI00
aI00
aI00
aI01
aI00
aI00
aI00
aI00
aI01
aI00
aI00
aI00
aI00
aa(lp37
I00
aI01
aI00
aI00
aI00
aI00
aI00
aI00
aI00
aI00
aI00
aI00
aI00
aI00
aI00
aI01
aI00
aI00
aa(lp38
I00
aI00
aI00
aI00
aI00
aI00
aI00
aI00
aI00
aI00
aI00
aI00
aI00
aI00
aI00
aI00
aI00
aI00
aa(lp39
I00
aI00
aI00
aI00
aI00
aI00
aI00
aI00
aI00
aI00
aI00
aI00
aI01
aI00
aI00
aI00
aI01
aI00
aa(lp40
I00
aI00
aI00
aI00
aI00
aI00
aI00
aI00
aI01
aI00
aI00
aI00
aI01
aI00
aI00
aI00
aI00
aI00
aa(lp41
I00
aI00
aI00
aI00
aI00
aI00
aI00
aI00
aI00
aI00
aI00
aI00
aI00
aI00
aI00
aI00
aI00
aI00
aa(lp42
I00
aI00
aI00
aI00
aI00
aI00
aI00
aI00
aI00
aI00
aI01
aI00
aI00
aI00
aI00
aI00
aI01
aI00
aa(lp43
I00
aI00
aI00
aI00
aI00
aI00
aI00
aI00
aI00
aI00
aI00
aI00
aI00
aI00
aI00
aI00
aI00
aI00
aa(lp44
I00
aI00
aI00
aI00
aI01
aI00
aI00
aI01
aI00
aI00
aI00
aI00
aI00
aI00
aI00
aI00
aI00
aI00
aa(lp45
I00
aI01
aI00
aI01
aI00
aI00
aI00
aI00
aI01
aI00
aI00
aI00
aI00
aI00
aI00
aI00
aI00
aI00
aa(lp46
I00
aI01
aI00
aI00
aI00
aI00
aI00
aI00
aI00
aI00
aI00
aI00
aI00
aI00
aI00
aI00
aI00
aI00
aa(lp47
I00
aI01
aI00
aI01
aI01
aI00
aI01
aI00
aI00
aI00
aI00
aI00
aI01
aI00
aI00
aI00
aI00
aI00
aa(lp48
I00
aI00
aI00
aI00
aI00
aI00
aI00
aI00
aI00
aI00
aI00
aI00
aI00
aI00
aI00
aI00
aI00
aI00
aasS'height'
p49
I18
sbsS'agentPositions'
p50
(lp51
(I00
(I1
I2
tp52
tp53
a(I00
(I32
I15
tp54
tp55
a(I00
(I1
I1
tp56
tp57
a(I00
(I32
I16
tp58
tp59
asg49
I18
sg12
I34
sS'walls'
p60
(igame
Grid
p61
(dp62
g11
I30
sg12
I34
sg13
(lp63
(lp64
I01
aI01
aI01
aI01
aI01
aI01
aI01
aI01
aI01
aI01
aI01
aI01
aI01
aI01
aI01
aI01
aI01
aI01
aa(lp65
I01
aI00
aI00
aI00
aI01
aI00
aI01
aI00
aI00
aI00
aI00
aI00
aI01
aI00
aI00
aI01
aI00
aI01
aa(lp66
I01
aI00
aI01
aI00
aI00
aI00
aI00
aI00
aI01
aI01
aI00
aI01
aI01
aI00
aI01
aI01
aI00
aI01
aa(lp67
I01
aI00
aI00
aI00
aI00
aI00
aI01
aI00
aI01
aI00
aI00
aI00
aI01
aI00
aI00
aI01
aI00
aI01
aa(lp68
I01
aI01
aI01
aI01
aI00
aI01
aI01
aI00
aI01
aI00
aI00
aI00
aI00
aI00
aI00
aI01
aI00
aI01
aa(lp69
I01
aI00
aI00
aI00
aI00
aI00
aI01
aI00
aI01
aI00
aI01
aI01
aI01
aI00
aI00
aI01
aI00
aI01
aa(lp70
I01
aI00
aI01
aI00
aI00
aI00
aI01
aI00
aI00
aI00
aI00
aI00
aI01
aI00
aI00
aI00
aI00
aI01
aa(lp71
I01
aI01
aI01
aI01
aI01
aI01
aI01
aI00
aI01
aI01
aI01
aI00
aI00
aI00
aI01
aI01
aI00
aI01
aa(lp72
I01
aI00
aI00
aI00
aI01
aI00
aI01
aI00
aI00
aI00
aI01
aI00
aI01
aI00
aI00
aI01
aI00
aI01
aa(lp73
I01
aI00
aI01
aI00
aI00
aI00
aI01
aI01
aI00
aI01
aI01
aI00
aI01
aI00
aI00
aI00
aI00
aI01
aa(lp74
I01
aI00
aI01
aI01
aI01
aI01
aI01
aI00
aI00
aI00
aI01
aI00
aI01
aI00
aI00
aI01
aI00
aI01
aa(lp75
I01
aI00
aI00
aI00
aI00
aI00
aI00
aI00
aI01
aI00
aI00
aI00
aI01
aI01
aI00
aI01
aI00
aI01
aa(lp76
I01
aI00
aI00
aI00
aI00
aI00
aI01
aI00
aI00
aI00
aI01
aI00
aI01
aI00
aI00
aI01
aI00
aI01
aa(lp77
I01
aI01
aI01
aI01
aI00
aI01
aI01
aI01
aI01
aI01
aI01
aI00
aI00
aI00
aI00
aI01
aI00
aI01
aa(lp78
I01
aI00
aI00
aI00
aI00
aI00
aI00
aI00
aI00
aI00
aI01
aI00
aI00
aI00
aI00
aI00
aI00
aI01
aa(lp79
I01
aI01
aI01
aI01
aI00
aI01
aI01
aI00
aI00
aI01
aI01
aI01
aI00
aI00
aI01
aI00
aI01
aI01
aa(lp80
I01
aI00
aI00
aI00
aI00
aI00
aI00
aI00
aI00
aI00
aI00
aI00
aI00
aI00
aI00
aI00
aI00
aI01
aa(lp81
I01
aI00
aI00
aI00
aI00
aI00
aI00
aI00
aI00
aI00
aI00
aI00
aI00
aI00
aI00
aI00
aI00
aI01
aa(lp82
I01
aI01
aI00
aI01
aI00
aI00
aI01
aI01
aI01
aI00
aI00
aI01
aI01
aI00
aI01
aI01
aI01
aI01
aa(lp83
I01
aI00
aI00
aI00
aI00
aI00
aI00
aI01
aI00
aI00
aI00
aI00
aI00
aI00
aI00
aI00
aI00
aI01
aa(lp84
I01
aI00
aI01
aI00
aI00
aI00
aI00
aI01
aI01
aI01
aI01
aI01
aI01
aI00
aI01
aI01
aI01
aI01
aa(lp85
I01
aI00
aI01
aI00
aI00
aI01
aI00
aI01
aI00
aI00
aI00
aI01
aI00
aI00
aI00
aI00
aI00
aI01
aa(lp86
I01
aI00
aI01
aI00
aI01
aI01
aI00
aI00
aI00
aI01
aI00
aI00
aI00
aI00
aI00
aI00
aI00
aI01
aa(lp87
I01
aI00
aI01
aI00
aI00
aI01
aI00
aI01
aI00
aI00
aI00
aI01
aI01
aI01
aI01
aI01
aI00
aI01
aa(lp88
I01
aI00
aI00
aI00
aI00
aI01
aI00
aI01
aI01
aI00
aI01
aI01
aI00
aI00
aI00
aI01
aI00
aI01
aa(lp89
I01
aI00
aI01
aI00
aI00
aI01
aI00
aI01
aI00
aI00
aI00
aI01
aI00
aI01
aI00
aI00
aI00
aI01
aa(lp90
I01
aI00
aI01
aI01
aI00
aI00
aI00
aI01
aI01
aI01
aI00
aI01
aI01
aI01
aI01
aI01
aI01
aI01
aa(lp91
I01
aI00
aI00
aI00
aI00
aI01
aI00
aI00
aI00
aI00
aI00
aI01
aI00
aI00
aI00
aI01
aI00
aI01
aa(lp92
I01
aI00
aI01
aI00
aI00
aI01
aI01
aI01
aI00
aI01
aI00
aI01
aI00
aI00
aI00
aI00
aI00
aI01
aa(lp93
I01
aI00
aI01
aI00
aI00
aI00
aI00
aI00
aI00
aI01
aI00
aI01
aI01
aI00
aI01
aI01
aI01
aI01
aa(lp94
I01
aI00
aI01
aI00
aI00
aI01
aI00
aI00
aI00
aI01
aI00
aI01
aI00
aI00
aI00
aI00
aI00
aI01
aa(lp95
I01
aI00
aI01
aI01
aI00
aI01
aI01
aI00
aI01
aI01
aI00
aI00
aI00
aI00
aI00
aI01
aI00
aI01
aa(lp96
I01
aI00
aI01
aI00
aI00
aI01
aI00
aI00
aI00
aI00
aI00
aI01
aI00
aI01
aI00
aI00
aI00
aI01
aa(lp97
I01
aI01
aI01
aI01
aI01
aI01
aI01
aI01
aI01
aI01
aI01
aI01
aI01
aI01
aI01
aI01
aI01
aI01
aasg49
I18
sbsS'totalFood'
p98
I60
sS'layoutText'
p99
(lp100
S'%%%%%%%%%%%%%%%%%%%%%%%%%%%%%%%%%%'
p101
aS'%...       .   %  %.%   . %. %  4%'
p102
aS'%%%%%% %% %%%%  . %.% .%% %% % %2%'
p103
aS'%.%.   %       %..% %  %  %  %   %'
p104
aS'%.  .      %.    .   . % %%     %%'
p105
aS'%%%% %% %%%%%     % %  %..%  %  .%'
p106
aS'%.%  %         %  % %% %%%%%%%% %%'
p107
aS'%   .% %%%% %%%%    %   %  .     %'
p108
aS'% %.   %.%  .%.%   .% %   % %%%% %'
p109
aS'% %%%% %   % %.   %.%.  %.%   .% %'
p110
aS'%     .  %   %    %%%% %%%% %.   %'
p111
aS'%% %%%%%%%% %% %  %         %  %.%'
p112
aS'%.  %  %..%  % %     %%%%% %% %%%%'
p113
aS'%%     %% % .   .    .%      .  .%'
p114
aS'%   %  %  %  % %..%       %   .%.%'
p115
aS'%1% % %% %%. %.% .  %%%% %% %%%%%%'
p116
aS'%3  % .% .   %.%  %   .       ...%'
p117
aS'%%%%%%%%%%%%%%%%%%%%%%%%%%%%%%%%%%'
p118
asbsS'blueTeamName'
p119
S'Blue'
p120
sS'actions'
p121
(lp122
(I1
S'South'
p123
tp124
a(I2
S'North'
p125
tp126
a(I3
g123
tp127
a(I0
g125
tp128
a(I1
S'West'
p129
tp130
a(I2
g125
tp131
a(I3
g123
tp132
a(I0
S'East'
p133
tp134
a(I1
g123
tp135
a(I2
g133
tp136
a(I3
g129
tp137
a(I0
g125
tp138
a(I1
g123
tp139
a(I2
g125
tp140
a(I3
g123
tp141
a(I0
g125
tp142
a(I1
g123
tp143
a(I2
g125
tp144
a(I3
g123
tp145
a(I0
g125
tp146
a(I1
g123
tp147
a(I2
g125
tp148
a(I3
g123
tp149
a(I0
g125
tp150
a(I1
g129
tp151
a(I2
g125
tp152
a(I3
g123
tp153
a(I0
g133
tp154
a(I1
g129
tp155
a(I2
g133
tp156
a(I3
g129
tp157
a(I0
g133
tp158
a(I1
g129
tp159
a(I2
g133
tp160
a(I3
g129
tp161
a(I0
g133
tp162
a(I1
g129
tp163
a(I2
g133
tp164
a(I3
g129
tp165
a(I0
g133
tp166
a(I1
g123
tp167
a(I2
g133
tp168
a(I3
g129
tp169
a(I0
g133
tp170
a(I1
g123
tp171
a(I2
g133
tp172
a(I3
g123
tp173
a(I0
g133
tp174
a(I1
g123
tp175
a(I2
g133
tp176
a(I3
g123
tp177
a(I0
g125
tp178
a(I1
g123
tp179
a(I2
g125
tp180
a(I3
g123
tp181
a(I0
g133
tp182
a(I1
g129
tp183
a(I2
g133
tp184
a(I3
g123
tp185
a(I0
g133
tp186
a(I1
g129
tp187
a(I2
g133
tp188
a(I3
g129
tp189
a(I0
g125
tp190
a(I1
g129
tp191
a(I2
g125
tp192
a(I3
g129
tp193
a(I0
g133
tp194
a(I1
g129
tp195
a(I2
g133
tp196
a(I3
g129
tp197
a(I0
g125
tp198
a(I1
g129
tp199
a(I2
g125
tp200
a(I3
g129
tp201
a(I0
g125
tp202
a(I1
g129
tp203
a(I2
g125
tp204
a(I3
g129
tp205
a(I0
g133
tp206
a(I1
g129
tp207
a(I2
g133
tp208
a(I3
g129
tp209
a(I0
g133
tp210
a(I1
g123
tp211
a(I2
g133
tp212
a(I3
g129
tp213
a(I0
g133
tp214
a(I1
g123
tp215
a(I2
g133
tp216
a(I3
g123
tp217
a(I0
g125
tp218
a(I1
g129
tp219
a(I2
g125
tp220
a(I3
g123
tp221
a(I0
g133
tp222
a(I1
g129
tp223
a(I2
g133
tp224
a(I3
g129
tp225
a(I0
g133
tp226
a(I1
g129
tp227
a(I2
g133
tp228
a(I3
g129
tp229
a(I0
g123
tp230
a(I1
g129
tp231
a(I2
g133
tp232
a(I3
g129
tp233
a(I0
g123
tp234
a(I1
g123
tp235
a(I2
g125
tp236
a(I3
g129
tp237
a(I0
g123
tp238
a(I1
g125
tp239
a(I2
g125
tp240
a(I3
g129
tp241
a(I0
g123
tp242
a(I1
g125
tp243
a(I2
g123
tp244
a(I3
g129
tp245
a(I0
g123
tp246
a(I1
g133
tp247
a(I2
g133
tp248
a(I3
g129
tp249
a(I0
g125
tp250
a(I1
g123
tp251
a(I2
g133
tp252
a(I3
g129
tp253
a(I0
g125
tp254
a(I1
g129
tp255
a(I2
g133
tp256
a(I3
g123
tp257
a(I0
g123
tp258
a(I1
g125
tp259
a(I2
g133
tp260
a(I3
g123
tp261
a(I0
g123
tp262
a(I1
g133
tp263
a(I2
g133
tp264
a(I3
g129
tp265
a(I0
g125
tp266
a(I1
g123
tp267
a(I2
g125
tp268
a(I3
g123
tp269
a(I0
g125
tp270
a(I1
g129
tp271
a(I2
g125
tp272
a(I3
g129
tp273
a(I0
g123
tp274
a(I1
g125
tp275
a(I2
g125
tp276
a(I3
g129
tp277
a(I0
g123
tp278
a(I1
g133
tp279
a(I2
g133
tp280
a(I3
g129
tp281
a(I0
g125
tp282
a(I1
g123
tp283
a(I2
g133
tp284
a(I3
g125
tp285
a(I0
g125
tp286
a(I1
g129
tp287
a(I2
g133
tp288
a(I3
g125
tp289
a(I0
g123
tp290
a(I1
g125
tp291
a(I2
g123
tp292
a(I3
g133
tp293
a(I0
g123
tp294
a(I1
g133
tp295
a(I2
g123
tp296
a(I3
g125
tp297
a(I0
g125
tp298
a(I1
g123
tp299
a(I2
g129
tp300
a(I3
g125
tp301
a(I0
g125
tp302
a(I1
g129
tp303
a(I2
g123
tp304
a(I3
g129
tp305
a(I0
g123
tp306
a(I1
g125
tp307
a(I2
g123
tp308
a(I3
g133
tp309
a(I0
g123
tp310
a(I1
g133
tp311
a(I2
g133
tp312
a(I3
g123
tp313
a(I0
g125
tp314
a(I1
g123
tp315
a(I2
g129
tp316
a(I3
g123
tp317
a(I0
g125
tp318
a(I1
g129
tp319
a(I2
g125
tp320
a(I3
g129
tp321
a(I0
g123
tp322
a(I1
g125
tp323
a(I2
g125
tp324
a(I3
g123
tp325
a(I0
g123
tp326
a(I1
g133
tp327
a(I2
g133
tp328
a(I3
g123
tp329
a(I0
g125
tp330
a(I1
g123
tp331
a(I2
g125
tp332
a(I3
g133
tp333
a(I0
g125
tp334
a(I1
g129
tp335
a(I2
g125
tp336
a(I3
g133
tp337
a(I0
g123
tp338
a(I1
g125
tp339
a(I2
g129
tp340
a(I3
g133
tp341
a(I0
g123
tp342
a(I1
g133
tp343
a(I2
g129
tp344
a(I3
g125
tp345
a(I0
g125
tp346
a(I1
g123
tp347
a(I2
g129
tp348
a(I3
g133
tp349
a(I0
g125
tp350
a(I1
g129
tp351
a(I2
g129
tp352
a(I3
g125
tp353
a(I0
g123
tp354
a(I1
g125
tp355
a(I2
g123
tp356
a(I3
g125
tp357
a(I0
g123
tp358
a(I1
g133
tp359
a(I2
g123
tp360
a(I3
g133
tp361
a(I0
g125
tp362
a(I1
g123
tp363
a(I2
g123
tp364
a(I3
g133
tp365
a(I0
g125
tp366
a(I1
g129
tp367
a(I2
g129
tp368
a(I3
g123
tp369
a(I0
g123
tp370
a(I1
g125
tp371
a(I2
g129
tp372
a(I3
g123
tp373
a(I0
g123
tp374
a(I1
g133
tp375
a(I2
g125
tp376
a(I3
g123
tp377
a(I0
g125
tp378
a(I1
g125
tp379
a(I2
g125
tp380
a(I3
g125
tp381
a(I0
g125
tp382
a(I1
g125
tp383
a(I2
g125
tp384
a(I3
g125
tp385
a(I0
S'Stop'
p386
tp387
a(I1
g125
tp388
a(I2
g123
tp389
a(I3
g125
tp390
a(I0
g386
tp391
a(I1
g129
tp392
a(I2
g123
tp393
a(I3
g125
tp394
a(I0
g123
tp395
a(I1
g123
tp396
a(I2
g123
tp397
a(I3
g125
tp398
a(I0
g129
tp399
a(I1
g129
tp400
a(I2
g123
tp401
a(I3
g125
tp402
a(I0
g129
tp403
a(I1
g123
tp404
a(I2
g123
tp405
a(I3
g133
tp406
a(I0
g133
tp407
a(I1
g123
tp408
a(I2
g123
tp409
a(I3
g133
tp410
a(I0
g133
tp411
a(I1
g123
tp412
a(I2
g123
tp413
a(I3
g133
tp414
a(I0
g125
tp415
a(I1
g123
tp416
a(I2
g129
tp417
a(I3
g125
tp418
a(I0
g386
tp419
a(I1
g129
tp420
a(I2
g125
tp421
a(I3
g125
tp422
a(I0
g386
tp423
a(I1
g129
tp424
a(I2
g133
tp425
a(I3
g125
tp426
a(I0
g386
tp427
a(I1
g129
tp428
a(I2
g125
tp429
a(I3
g133
tp430
a(I0
g386
tp431
a(I1
g129
tp432
a(I2
g125
tp433
a(I3
g133
tp434
a(I0
g386
tp435
a(I1
g129
tp436
a(I2
g125
tp437
a(I3
g125
tp438
a(I0
g386
tp439
a(I1
g129
tp440
a(I2
g129
tp441
a(I3
g125
tp442
a(I0
g386
tp443
a(I1
g123
tp444
a(I2
g129
tp445
a(I3
g125
tp446
a(I0
g386
tp447
a(I1
g129
tp448
a(I2
g129
tp449
a(I3
g129
tp450
a(I0
g386
tp451
a(I1
g129
tp452
a(I2
g123
tp453
a(I3
g129
tp454
a(I0
g386
tp455
a(I1
g125
tp456
a(I2
g123
tp457
a(I3
g125
tp458
a(I0
g386
tp459
a(I1
g129
tp460
a(I2
g133
tp461
a(I3
g123
tp462
a(I0
g386
tp463
a(I1
g125
tp464
a(I2
g123
tp465
a(I3
g123
tp466
a(I0
g386
tp467
a(I1
g125
tp468
a(I2
g133
tp469
a(I3
g123
tp470
a(I0
g386
tp471
a(I1
g125
tp472
a(I2
g133
tp473
a(I3
g123
tp474
a(I0
g386
tp475
a(I1
g129
tp476
a(I2
g123
tp477
a(I3
g123
tp478
a(I0
g386
tp479
a(I1
g129
tp480
a(I2
g123
tp481
a(I3
g133
tp482
a(I0
g386
tp483
a(I1
g129
tp484
a(I2
g125
tp485
a(I3
g133
tp486
a(I0
g386
tp487
a(I1
g129
tp488
a(I2
g125
tp489
a(I3
g129
tp490
a(I0
g386
tp491
a(I1
g129
tp492
a(I2
g125
tp493
a(I3
g129
tp494
a(I0
g386
tp495
a(I1
g125
tp496
a(I2
g133
tp497
a(I3
g123
tp498
a(I0
g386
tp499
a(I1
g129
tp500
a(I2
g125
tp501
a(I3
g129
tp502
a(I0
g125
tp503
a(I1
g133
tp504
a(I2
g125
tp505
a(I3
g133
tp506
a(I0
g123
tp507
a(I1
g125
tp508
a(I2
g125
tp509
a(I3
g129
tp510
a(I0
g123
tp511
a(I1
g129
tp512
a(I2
g125
tp513
a(I3
g123
tp514
a(I0
g125
tp515
a(I1
g129
tp516
a(I2
g133
tp517
a(I3
g123
tp518
a(I0
g386
tp519
a(I1
g129
tp520
a(I2
g133
tp521
a(I3
g129
tp522
a(I0
g386
tp523
a(I1
g125
tp524
a(I2
g133
tp525
a(I3
g123
tp526
a(I0
g386
tp527
a(I1
g129
tp528
a(I2
g133
tp529
a(I3
g123
tp530
a(I0
g386
tp531
a(I1
g129
tp532
a(I2
g133
tp533
a(I3
g123
tp534
a(I0
g386
tp535
a(I1
g129
tp536
a(I2
g133
tp537
a(I3
g123
tp538
a(I0
g386
tp539
a(I1
g129
tp540
a(I2
g125
tp541
a(I3
g129
tp542
a(I0
g386
tp543
a(I1
g129
tp544
a(I2
g133
tp545
a(I3
g129
tp546
a(I0
g386
tp547
a(I1
g129
tp548
a(I2
g133
tp549
a(I3
g129
tp550
a(I0
g386
tp551
a(I1
g129
tp552
a(I2
g123
tp553
a(I3
g129
tp554
a(I0
g386
tp555
a(I1
g129
tp556
a(I2
g133
tp557
a(I3
g129
tp558
a(I0
g386
tp559
a(I1
g129
tp560
a(I2
g123
tp561
a(I3
g129
tp562
a(I0
g386
tp563
a(I1
g129
tp564
a(I2
g123
tp565
a(I3
g123
tp566
a(I0
g386
tp567
a(I1
g129
tp568
a(I2
g133
tp569
a(I3
g129
tp570
a(I0
g386
tp571
a(I1
g129
tp572
a(I2
g123
tp573
a(I3
g129
tp574
a(I0
g386
tp575
a(I1
g129
tp576
a(I2
g133
tp577
a(I3
g125
tp578
a(I0
g386
tp579
a(I1
g133
tp580
a(I2
g133
tp581
a(I3
g129
tp582
a(I0
g386
tp583
a(I1
g133
tp584
a(I2
g133
tp585
a(I3
g125
tp586
a(I0
g386
tp587
a(I1
g133
tp588
a(I2
g133
tp589
a(I3
g125
tp590
a(I0
g386
tp591
a(I1
g133
tp592
a(I2
g133
tp593
a(I3
g125
tp594
a(I0
g386
tp595
a(I1
g133
tp596
a(I2
g123
tp597
a(I3
g129
tp598
a(I0
g386
tp599
a(I1
g123
tp600
a(I2
g123
tp601
a(I3
g129
tp602
a(I0
g386
tp603
a(I1
g123
tp604
a(I2
g133
tp605
a(I3
g129
tp606
a(I0
g386
tp607
a(I1
g129
tp608
a(I2
g133
tp609
a(I3
g129
tp610
a(I0
g386
tp611
a(I1
g129
tp612
a(I2
g125
tp613
a(I3
g129
tp614
a(I0
g386
tp615
a(I1
g129
tp616
a(I2
g133
tp617
a(I3
g129
tp618
a(I0
g125
tp619
a(I1
g123
tp620
a(I2
g133
tp621
a(I3
g133
tp622
a(I0
g123
tp623
a(I1
g133
tp624
a(I2
g125
tp625
a(I3
g129
tp626
a(I0
g125
tp627
a(I1
g129
tp628
a(I2
g129
tp629
a(I3
g133
tp630
a(I0
g123
tp631
a(I1
g129
tp632
a(I2
g129
tp633
a(I3
g129
tp634
a(I0
g125
tp635
a(I1
g129
tp636
a(I2
g123
tp637
a(I3
g133
tp638
a(I0
g123
tp639
a(I1
g125
tp640
a(I2
g123
tp641
a(I3
g129
tp642
a(I0
g125
tp643
a(I1
g123
tp644
a(I2
g123
tp645
a(I3
g133
tp646
a(I0
g123
tp647
a(I1
g133
tp648
a(I2
g133
tp649
a(I3
g129
tp650
a(I0
g125
tp651
a(I1
g133
tp652
a(I2
g133
tp653
a(I3
g133
tp654
a(I0
g123
tp655
a(I1
g133
tp656
a(I2
g133
tp657
a(I3
g129
tp658
a(I0
g125
tp659
a(I1
g123
tp660
a(I2
g133
tp661
a(I3
g133
tp662
a(I0
g123
tp663
a(I1
g123
tp664
a(I2
g133
tp665
a(I3
g129
tp666
a(I0
g125
tp667
a(I1
g123
tp668
a(I2
g133
tp669
a(I3
g133
tp670
a(I0
g123
tp671
a(I1
g123
tp672
a(I2
g133
tp673
a(I3
g129
tp674
a(I0
g125
tp675
a(I1
g129
tp676
a(I2
g133
tp677
a(I3
g133
tp678
a(I0
g123
tp679
a(I1
g125
tp680
a(I2
g133
tp681
a(I3
g129
tp682
a(I0
g125
tp683
a(I1
g129
tp684
a(I2
g133
tp685
a(I3
g133
tp686
a(I0
g123
tp687
a(I1
g129
tp688
a(I2
g133
tp689
a(I3
g129
tp690
a(I0
g125
tp691
a(I1
g125
tp692
a(I2
g133
tp693
a(I3
g133
tp694
a(I0
g123
tp695
a(I1
g123
tp696
a(I2
g133
tp697
a(I3
g129
tp698
a(I0
g125
tp699
a(I1
g123
tp700
a(I2
g129
tp701
a(I3
g133
tp702
a(I0
g123
tp703
a(I1
g123
tp704
a(I2
g129
tp705
a(I3
g129
tp706
a(I0
g125
tp707
a(I1
g123
tp708
a(I2
g129
tp709
a(I3
g133
tp710
a(I0
g123
tp711
a(I1
g133
tp712
a(I2
g129
tp713
a(I3
g129
tp714
a(I0
g125
tp715
a(I1
g123
tp716
a(I2
g129
tp717
a(I3
g133
tp718
a(I0
g123
tp719
a(I1
g123
tp720
a(I2
g125
tp721
a(I3
g129
tp722
a(I0
g125
tp723
a(I1
g129
tp724
a(I2
g125
tp725
a(I3
g133
tp726
a(I0
g123
tp727
a(I1
g133
tp728
a(I2
g133
tp729
a(I3
g129
tp730
a(I0
g125
tp731
a(I1
g125
tp732
a(I2
g133
tp733
a(I3
g133
tp734
a(I0
g123
tp735
a(I1
g125
tp736
a(I2
g133
tp737
a(I3
g129
tp738
a(I0
g125
tp739
a(I1
g133
tp740
a(I2
g129
tp741
a(I3
g133
tp742
a(I0
g123
tp743
a(I1
g133
tp744
a(I2
g125
tp745
a(I3
g129
tp746
a(I0
g125
tp747
a(I1
g133
tp748
a(I2
g133
tp749
a(I3
g133
tp750
a(I0
g123
tp751
a(I1
g133
tp752
a(I2
g133
tp753
a(I3
g129
tp754
a(I0
g125
tp755
a(I1
g133
tp756
a(I2
g133
tp757
a(I3
g133
tp758
a(I0
g123
tp759
a(I1
g133
tp760
a(I2
g123
tp761
a(I3
g129
tp762
a(I0
g125
tp763
a(I1
g125
tp764
a(I2
g125
tp765
a(I3
g133
tp766
a(I0
g123
tp767
a(I1
g125
tp768
a(I2
g129
tp769
a(I3
g129
tp770
a(I0
g125
tp771
a(I1
g123
tp772
a(I2
g129
tp773
a(I3
g133
tp774
a(I0
g123
tp775
a(I1
g133
tp776
a(I2
g129
tp777
a(I3
g129
tp778
a(I0
g125
tp779
a(I1
g133
tp780
a(I2
g125
tp781
a(I3
g133
tp782
a(I0
g123
tp783
a(I1
g125
tp784
a(I2
g125
tp785
a(I3
g129
tp786
a(I0
g125
tp787
a(I1
g133
tp788
a(I2
g125
tp789
a(I3
g133
tp790
a(I0
g123
tp791
a(I1
g133
tp792
a(I2
g133
tp793
a(I3
g129
tp794
a(I0
g125
tp795
a(I1
g129
tp796
a(I2
g125
tp797
a(I3
g133
tp798
a(I0
g123
tp799
a(I1
g125
tp800
a(I2
g123
tp801
a(I3
g129
tp802
a(I0
g125
tp803
a(I1
g125
tp804
a(I2
g133
tp805
a(I3
g133
tp806
a(I0
g123
tp807
a(I1
g133
tp808
a(I2
g133
tp809
a(I3
g129
tp810
a(I0
g125
tp811
a(I1
g133
tp812
a(I2
g123
tp813
a(I3
g133
tp814
a(I0
g125
tp815
a(I1
g125
tp816
a(I2
g125
tp817
a(I3
g129
tp818
a(I0
g125
tp819
a(I1
g125
tp820
a(I2
g125
tp821
a(I3
g133
tp822
a(I0
g129
tp823
a(I1
g133
tp824
a(I2
g125
tp825
a(I3
g123
tp826
a(I0
g129
tp827
a(I1
g133
tp828
a(I2
g125
tp829
a(I3
g123
tp830
a(I0
g133
tp831
a(I1
g133
tp832
a(I2
g129
tp833
a(I3
g123
tp834
a(I0
g133
tp835
a(I1
g133
tp836
a(I2
g125
tp837
a(I3
g123
tp838
a(I0
g123
tp839
a(I1
g129
tp840
a(I2
g125
tp841
a(I3
g123
tp842
a(I0
g125
tp843
a(I1
g133
tp844
a(I2
g133
tp845
a(I3
g123
tp846
a(I0
g123
tp847
a(I1
g129
tp848
a(I2
g129
tp849
a(I3
g123
tp850
a(I0
g125
tp851
a(I1
g133
tp852
a(I2
g123
tp853
a(I3
g125
tp854
a(I0
g123
tp855
a(I1
g129
tp856
a(I2
g123
tp857
a(I3
g125
tp858
a(I0
g125
tp859
a(I1
g133
tp860
a(I2
g129
tp861
a(I3
g129
tp862
a(I0
g123
tp863
a(I1
g129
tp864
a(I2
g129
tp865
a(I3
g133
tp866
a(I0
g125
tp867
a(I1
g133
tp868
a(I2
g129
tp869
a(I3
g129
tp870
a(I0
g123
tp871
a(I1
g129
tp872
a(I2
g129
tp873
a(I3
g133
tp874
a(I0
g125
tp875
a(I1
g133
tp876
a(I2
g129
tp877
a(I3
g129
tp878
a(I0
g123
tp879
a(I1
g129
tp880
a(I2
g129
tp881
a(I3
g133
tp882
a(I0
g125
tp883
a(I1
g133
tp884
a(I2
g123
tp885
a(I3
g129
tp886
a(I0
g123
tp887
a(I1
g129
tp888
a(I2
g123
tp889
a(I3
g133
tp890
a(I0
g125
tp891
a(I1
g133
tp892
a(I2
g125
tp893
a(I3
g129
tp894
a(I0
g123
tp895
a(I1
g129
tp896
a(I2
g129
tp897
a(I3
g133
tp898
a(I0
g125
tp899
a(I1
g133
tp900
a(I2
g129
tp901
a(I3
g129
tp902
a(I0
g123
tp903
a(I1
g129
tp904
a(I2
g123
tp905
a(I3
g133
tp906
a(I0
g125
tp907
a(I1
g133
tp908
a(I2
g129
tp909
a(I3
g129
tp910
a(I0
g123
tp911
a(I1
g129
tp912
a(I2
g129
tp913
a(I3
g133
tp914
a(I0
g125
tp915
a(I1
g133
tp916
a(I2
g133
tp917
a(I3
g129
tp918
a(I0
g123
tp919
a(I1
g129
tp920
a(I2
g123
tp921
a(I3
g133
tp922
a(I0
g125
tp923
a(I1
g133
tp924
a(I2
g123
tp925
a(I3
g129
tp926
a(I0
g123
tp927
a(I1
g129
tp928
a(I2
g129
tp929
a(I3
g133
tp930
a(I0
g125
tp931
a(I1
g133
tp932
a(I2
g129
tp933
a(I3
g129
tp934
a(I0
g123
tp935
a(I1
g129
tp936
a(I2
g129
tp937
a(I3
g133
tp938
a(I0
g125
tp939
a(I1
g133
tp940
a(I2
g123
tp941
a(I3
g123
tp942
a(I0
g123
tp943
a(I1
g129
tp944
a(I2
g129
tp945
a(I3
g123
tp946
a(I0
g125
tp947
a(I1
g133
tp948
a(I2
g123
tp949
a(I3
g123
tp950
a(I0
g123
tp951
a(I1
g129
tp952
a(I2
g133
tp953
a(I3
g123
tp954
a(I0
g125
tp955
a(I1
g133
tp956
a(I2
g123
tp957
a(I3
g133
tp958
a(I0
g123
tp959
a(I1
g129
tp960
a(I2
g123
tp961
a(I3
g133
tp962
a(I0
g125
tp963
a(I1
g133
tp964
a(I2
g129
tp965
a(I3
g123
tp966
a(I0
g123
tp967
a(I1
g129
tp968
a(I2
g129
tp969
a(I3
g123
tp970
a(I0
g125
tp971
a(I1
g133
tp972
a(I2
g129
tp973
asS'length'
p974
I1200
sS'agents'
p975
(lp976
(igame
Agent
p977
(dp978
S'index'
p979
I0
sba(igame
Agent
p980
(dp981
g979
I0
sba(igame
Agent
p982
(dp983
g979
I0
sba(igame
Agent
p984
(dp985
g979
I0
sbasS'redTeamName'
p986
S'Red'
p987
s.