(dp1
S'layout'
p2
(ilayout
Layout
p3
(dp4
S'capsules'
p5
(lp6
(I30
I1
tp7
a(I8
I5
tp8
a(I25
I12
tp9
a(I3
I16
tp10
asS'numGhosts'
p11
I4
sS'food'
p12
(igame
Grid
p13
(dp14
S'CELLS_PER_INT'
p15
I30
sS'width'
p16
I34
sS'data'
p17
(lp18
(lp19
I00
aI00
aI00
aI00
aI00
aI00
aI00
aI00
aI00
aI00
aI00
aI00
aI00
aI00
aI00
aI00
aI00
aI00
aa(lp20
I00
aI00
aI00
aI00
aI00
aI00
aI00
aI00
aI00
aI00
aI00
aI00
aI00
aI00
aI00
aI00
aI00
aI00
aa(lp21
I00
aI00
aI00
aI00
aI00
aI00
aI00
aI00
aI00
aI00
aI00
aI00
aI00
aI00
aI00
aI00
aI00
aI00
aa(lp22
I00
aI00
aI00
aI00
aI00
aI00
aI00
aI01
aI00
aI00
aI00
aI00
aI00
aI00
aI00
aI00
aI00
aI00
aa(lp23
I00
aI00
aI00
aI00
aI00
aI00
aI00
aI00
aI00
aI00
aI00
aI00
aI01
aI00
aI01
aI00
aI01
aI00
aa(lp24
I00
aI00
aI00
aI00
aI00
aI00
aI00
aI00
aI00
aI00
aI00
aI00
aI00
aI00
aI00
aI00
aI00
aI00
aa(lp25
I00
aI00
aI01
aI00
aI00
aI00
aI00
aI00
aI00
aI00
aI01
aI00
aI01
aI00
aI00
aI01
aI01
aI00
aa(lp26
I00
aI00
aI00
aI00
aI00
aI00
aI00
aI00
aI00
aI00
aI00
aI00
aI00
aI00
aI00
aI00
aI00
aI00
aa(lp27
I00
aI01
aI00
aI00
aI00
aI00
aI00
aI00
aI00
aI00
aI00
aI00
aI00
aI00
aI01
aI00
aI01
aI00
aa(lp28
I00
aI00
aI00
aI00
aI00
aI01
aI00
aI00
aI00
aI00
aI00
aI00
aI00
aI00
aI00
aI00
aI01
aI00
aa(lp29
I00
aI00
aI00
aI00
aI00
aI00
aI00
aI00
aI00
aI00
aI00
aI00
aI00
aI00
aI01
aI00
aI00
aI00
aa(lp30
I00
aI01
aI00
aI01
aI00
aI00
aI01
aI00
aI00
aI00
aI01
aI00
aI00
aI00
aI01
aI00
aI00
aI00
aa(lp31
I00
aI00
aI01
aI00
aI00
aI00
aI00
aI00
aI00
aI01
aI00
aI00
aI00
aI00
aI00
aI00
aI00
aI00
aa(lp32
I00
aI00
aI00
aI00
aI01
aI00
aI01
aI01
aI00
aI00
aI01
aI00
aI00
aI00
aI00
aI00
aI00
aI00
aa(lp33
I00
aI00
aI00
aI00
aI01
aI00
aI00
aI00
aI01
aI00
aI01
aI00
aI00
aI00
aI01
aI00
aI00
aI00
aa(lp34
I00
aI00
aI00
aI00
aI00
aI00
aI00
aI00
aI00
aI00
aI00
aI00
aI00
aI00
aI00
aI00
aI00
aI00
aa(lp35
I00
aI00
aI00
aI00
aI00
aI00
aI00
aI00
aI00
aI00
aI00
aI00
aI00
aI00
aI00
aI00
aI00
aI00
aa(lp36
I00
aI00
aI00
aI00
aI00
aI00
aI00
aI00
aI00
aI00
aI00
aI00
aI00
aI00
aI00
aI00
aI00
aI00
aa(lp37
I00
aI00
aI00
aI00
aI00
aI00
aI00
aI00
aI00
aI00
aI00
aI00
aI00
aI00
aI00
aI00
aI00
aI00
aa(lp38
I00
aI00
aI00
aI01
aI00
aI00
aI00
aI01
aI00
aI01
aI00
aI00
aI00
aI01
aI00
aI00
aI00
aI00
aa(lp39
I00
aI00
aI00
aI00
aI00
aI00
aI00
aI01
aI00
aI00
aI01
aI01
aI00
aI01
aI00
aI00
aI00
aI00
aa(lp40
I00
aI00
aI00
aI00
aI00
aI00
aI00
aI00
aI01
aI00
aI00
aI00
aI00
aI00
aI00
aI01
aI00
aI00
aa(lp41
I00
aI00
aI00
aI01
aI00
aI00
aI00
aI01
aI00
aI00
aI00
aI01
aI00
aI00
aI01
aI00
aI01
aI00
aa(lp42
I00
aI00
aI00
aI01
aI00
aI00
aI00
aI00
aI00
aI00
aI00
aI00
aI00
aI00
aI00
aI00
aI00
aI00
aa(lp43
I00
aI01
aI00
aI00
aI00
aI00
aI00
aI00
aI00
aI00
aI00
aI00
aI01
aI00
aI00
aI00
aI00
aI00
aa(lp44
I00
aI01
aI00
aI01
aI00
aI00
aI00
aI00
aI00
aI00
aI00
aI00
aI00
aI00
aI00
aI00
aI01
aI00
aa(lp45
I00
aI00
aI00
aI00
aI00
aI00
aI00
aI00
aI00
aI00
aI00
aI00
aI00
aI00
aI00
aI00
aI00
aI00
aa(lp46
I00
aI01
aI01
aI00
aI00
aI01
aI00
aI01
aI00
aI00
aI00
aI00
aI00
aI00
aI00
aI01
aI00
aI00
aa(lp47
I00
aI00
aI00
aI00
aI00
aI00
aI00
aI00
aI00
aI00
aI00
aI00
aI00
aI00
aI00
aI00
aI00
aI00
aa(lp48
I00
aI01
aI00
aI01
aI00
aI01
aI00
aI00
aI00
aI00
aI00
aI00
aI00
aI00
aI00
aI00
aI00
aI00
aa(lp49
I00
aI00
aI00
aI00
aI00
aI00
aI00
aI00
aI00
aI00
aI01
aI00
aI00
aI00
aI00
aI00
aI00
aI00
aa(lp50
I00
aI00
aI00
aI00
aI00
aI00
aI00
aI00
aI00
aI00
aI00
aI00
aI00
aI00
aI00
aI00
aI00
aI00
aa(lp51
I00
aI00
aI00
aI00
aI00
aI00
aI00
aI00
aI00
aI00
aI00
aI00
aI00
aI00
aI00
aI00
aI00
aI00
aa(lp52
I00
aI00
aI00
aI00
aI00
aI00
aI00
aI00
aI00
aI00
aI00
aI00
aI00
aI00
aI00
aI00
aI00
aI00
aasS'height'
p53
I18
sbsS'agentPositions'
p54
(lp55
(I00
(I1
I2
tp56
tp57
a(I00
(I32
I15
tp58
tp59
a(I00
(I1
I1
tp60
tp61
a(I00
(I32
I16
tp62
tp63
asg53
I18
sg16
I34
sS'walls'
p64
(igame
Grid
p65
(dp66
g15
I30
sg16
I34
sg17
(lp67
(lp68
I01
aI01
aI01
aI01
aI01
aI01
aI01
aI01
aI01
aI01
aI01
aI01
aI01
aI01
aI01
aI01
aI01
aI01
aa(lp69
I01
aI00
aI00
aI00
aI00
aI00
aI00
aI00
aI00
aI00
aI00
aI00
aI00
aI00
aI00
aI00
aI00
aI01
aa(lp70
I01
aI01
aI01
aI01
aI01
aI01
aI01
aI01
aI01
aI01
aI01
aI01
aI01
aI01
aI01
aI01
aI00
aI01
aa(lp71
I01
aI00
aI00
aI00
aI00
aI00
aI00
aI00
aI00
aI00
aI00
aI00
aI00
aI00
aI01
aI00
aI00
aI01
aa(lp72
I01
aI00
aI00
aI00
aI00
aI00
aI01
aI00
aI00
aI00
aI00
aI00
aI00
aI00
aI00
aI00
aI00
aI01
aa(lp73
I01
aI00
aI00
aI01
aI01
aI01
aI01
aI01
aI00
aI01
aI01
aI01
aI01
aI01
aI01
aI01
aI01
aI01
aa(lp74
I01
aI00
aI00
aI00
aI00
aI00
aI01
aI00
aI00
aI00
aI00
aI01
aI00
aI00
aI00
aI00
aI00
aI01
aa(lp75
I01
aI01
aI00
aI01
aI01
aI00
aI00
aI00
aI01
aI00
aI01
aI01
aI01
aI00
aI01
aI01
aI01
aI01
aa(lp76
I01
aI00
aI00
aI00
aI00
aI00
aI01
aI00
aI00
aI00
aI00
aI01
aI00
aI00
aI00
aI01
aI00
aI01
aa(lp77
I01
aI00
aI00
aI01
aI00
aI00
aI01
aI00
aI00
aI00
aI00
aI01
aI00
aI01
aI01
aI01
aI00
aI01
aa(lp78
I01
aI01
aI01
aI01
aI01
aI01
aI01
aI00
aI01
aI01
aI01
aI01
aI00
aI01
aI00
aI01
aI00
aI01
aa(lp79
I01
aI00
aI01
aI00
aI00
aI00
aI00
aI00
aI00
aI01
aI00
aI01
aI00
aI01
aI00
aI01
aI00
aI01
aa(lp80
I01
aI00
aI00
aI00
aI00
aI01
aI01
aI01
aI00
aI00
aI00
aI00
aI00
aI01
aI00
aI01
aI00
aI01
aa(lp81
I01
aI00
aI01
aI00
aI00
aI01
aI00
aI00
aI00
aI01
aI00
aI01
aI00
aI01
aI00
aI00
aI00
aI01
aa(lp82
I01
aI00
aI01
aI00
aI00
aI00
aI00
aI01
aI00
aI01
aI00
aI01
aI00
aI01
aI00
aI01
aI00
aI01
aa(lp83
I01
aI00
aI01
aI01
aI01
aI01
aI00
aI01
aI01
aI01
aI01
aI01
aI00
aI00
aI00
aI01
aI00
aI01
aa(lp84
I01
aI00
aI01
aI00
aI00
aI00
aI00
aI00
aI00
aI00
aI00
aI01
aI00
aI01
aI00
aI01
aI00
aI01
aa(lp85
I01
aI00
aI01
aI00
aI01
aI00
aI01
aI00
aI00
aI00
aI00
aI00
aI00
aI00
aI00
aI01
aI00
aI01
aa(lp86
I01
aI00
aI01
aI00
aI00
aI00
aI01
aI01
aI01
aI01
aI01
aI00
aI01
aI01
aI01
aI01
aI00
aI01
aa(lp87
I01
aI00
aI01
aI00
aI01
aI00
aI01
aI00
aI01
aI00
aI01
aI00
aI00
aI00
aI00
aI01
aI00
aI01
aa(lp88
I01
aI00
aI00
aI00
aI01
aI00
aI01
aI00
aI01
aI00
aI00
aI00
aI01
aI00
aI00
aI01
aI00
aI01
aa(lp89
I01
aI00
aI01
aI00
aI01
aI00
aI00
aI00
aI00
aI00
aI01
aI01
aI01
aI00
aI00
aI00
aI00
aI01
aa(lp90
I01
aI00
aI01
aI00
aI01
aI00
aI01
aI00
aI01
aI00
aI00
aI00
aI00
aI00
aI00
aI01
aI00
aI01
aa(lp91
I01
aI00
aI01
aI00
aI01
aI00
aI01
aI01
aI01
aI01
aI00
aI01
aI01
aI01
aI01
aI01
aI01
aI01
aa(lp92
I01
aI00
aI01
aI01
aI01
aI00
aI01
aI00
aI00
aI00
aI00
aI01
aI00
aI00
aI01
aI00
aI00
aI01
aa(lp93
I01
aI00
aI01
aI00
aI00
aI00
aI01
aI00
aI00
aI00
aI00
aI01
aI00
aI00
aI00
aI00
aI00
aI01
aa(lp94
I01
aI01
aI01
aI01
aI00
aI01
aI01
aI01
aI00
aI01
aI00
aI00
aI00
aI01
aI01
aI00
aI01
aI01
aa(lp95
I01
aI00
aI00
aI00
aI00
aI00
aI01
aI00
aI00
aI00
aI00
aI01
aI00
aI00
aI00
aI00
aI00
aI01
aa(lp96
I01
aI01
aI01
aI01
aI01
aI01
aI01
aI01
aI01
aI00
aI01
aI01
aI01
aI01
aI01
aI00
aI00
aI01
aa(lp97
I01
aI00
aI00
aI00
aI00
aI00
aI00
aI00
aI00
aI00
aI00
aI01
aI00
aI00
aI00
aI00
aI00
aI01
aa(lp98
I01
aI00
aI00
aI01
aI00
aI00
aI00
aI00
aI00
aI00
aI00
aI00
aI00
aI00
aI00
aI00
aI00
aI01
aa(lp99
I01
aI00
aI01
aI01
aI01
aI01
aI01
aI01
aI01
aI01
aI01
aI01
aI01
aI01
aI01
aI01
aI01
aI01
aa(lp100
I01
aI00
aI00
aI00
aI00
aI00
aI00
aI00
aI00
aI00
aI00
aI00
aI00
aI00
aI00
aI00
aI00
aI01
aa(lp101
I01
aI01
aI01
aI01
aI01
aI01
aI01
aI01
aI01
aI01
aI01
aI01
aI01
aI01
aI01
aI01
aI01
aI01
aasg53
I18
sbsS'totalFood'
p102
I60
sS'layoutText'
p103
(lp104
S'%%%%%%%%%%%%%%%%%%%%%%%%%%%%%%%%%%'
p105
aS'%  o.%.%..            .% .%    %4%'
p106
aS'% %  %.%%%%%% %%%%%%%.%%   .   %2%'
p107
aS'% %%.% %.%..  .   %   .%% % %  % %'
p108
aS'% %  %   %%%%%% % %..  %  % %  % %'
p109
aS'% % .%.%          % %% %.o  %  % %'
p110
aS'% %  %%%%%%% %%%%   .%.%%% %%% % %'
p111
aS'% %  %.%  %. ..%  %%.%      % .% %'
p112
aS'% %  %    %%.%%%  %.   %  %    % %'
p113
aS'% %    %  %   .%  %%%.%%    %  % %'
p114
aS'% %. %      %.%%  %.. .%  %.%  % %'
p115
aS'% % %%% %%%.%.   %%%% %%%%%%%  % %'
p116
aS'% %  %  o.% %% %          %.%. % %'
p117
aS'% %  % %  %  ..% % %%%%%%   %  % %'
p118
aS'% %  % % %%.   %   .  ..%.% %.%% %'
p119
aS'%1%   .   %%.%%%%%%% %%%%%%.%  % %'
p120
aS'%3%    %. %.            ..%.%.o  %'
p121
aS'%%%%%%%%%%%%%%%%%%%%%%%%%%%%%%%%%%'
p122
asbsS'blueTeamName'
p123
S'Blue'
p124
sS'actions'
p125
(lp126
(I0
S'North'
p127
tp128
a(I1
S'South'
p129
tp130
a(I2
g127
tp131
a(I3
g129
tp132
a(I0
g127
tp133
a(I1
g129
tp134
a(I2
g127
tp135
a(I3
g129
tp136
a(I0
g127
tp137
a(I1
g129
tp138
a(I2
g127
tp139
a(I3
g129
tp140
a(I0
g127
tp141
a(I1
g129
tp142
a(I2
g127
tp143
a(I3
g129
tp144
a(I0
g127
tp145
a(I1
g129
tp146
a(I2
g127
tp147
a(I3
g129
tp148
a(I0
g127
tp149
a(I1
g129
tp150
a(I2
g127
tp151
a(I3
g129
tp152
a(I0
g127
tp153
a(I1
g129
tp154
a(I2
g127
tp155
a(I3
g129
tp156
a(I0
g127
tp157
a(I1
g129
tp158
a(I2
g127
tp159
a(I3
g129
tp160
a(I0
g127
tp161
a(I1
g129
tp162
a(I2
g127
tp163
a(I3
g129
tp164
a(I0
g127
tp165
a(I1
g129
tp166
a(I2
g127
tp167
a(I3
g129
tp168
a(I0
g127
tp169
a(I1
g129
tp170
a(I2
g127
tp171
a(I3
g129
tp172
a(I0
g127
tp173
a(I1
g129
tp174
a(I2
g127
tp175
a(I3
g129
tp176
a(I0
g127
tp177
a(I1
g129
tp178
a(I2
g127
tp179
a(I3
g129
tp180
a(I0
g127
tp181
a(I1
g129
tp182
a(I2
g127
tp183
a(I3
g129
tp184
a(I0
S'East'
p185
tp186
a(I1
S'West'
p187
tp188
a(I2
g127
tp189
a(I3
g129
tp190
a(I0
g185
tp191
a(I1
g187
tp192
a(I2
g185
tp193
a(I3
g187
tp194
a(I0
g129
tp195
a(I1
g127
tp196
a(I2
g185
tp197
a(I3
g187
tp198
a(I0
g185
tp199
a(I1
g187
tp200
a(I2
g129
tp201
a(I3
g187
tp202
a(I0
g129
tp203
a(I1
g127
tp204
a(I2
g185
tp205
a(I3
g127
tp206
a(I0
g129
tp207
a(I1
g127
tp208
a(I2
g129
tp209
a(I3
g127
tp210
a(I0
g129
tp211
a(I1
g127
tp212
a(I2
g129
tp213
a(I3
g127
tp214
a(I0
g129
tp215
a(I1
g127
tp216
a(I2
g129
tp217
a(I3
g127
tp218
a(I0
g129
tp219
a(I1
g127
tp220
a(I2
g129
tp221
a(I3
g127
tp222
a(I0
g129
tp223
a(I1
g127
tp224
a(I2
g129
tp225
a(I3
g127
tp226
a(I0
g129
tp227
a(I1
g127
tp228
a(I2
g129
tp229
a(I3
g127
tp230
a(I0
g185
tp231
a(I1
g187
tp232
a(I2
g129
tp233
a(I3
g127
tp234
a(I0
g185
tp235
a(I1
g187
tp236
a(I2
g185
tp237
a(I3
g187
tp238
a(I0
g129
tp239
a(I1
g127
tp240
a(I2
g185
tp241
a(I3
g187
tp242
a(I0
g185
tp243
a(I1
g187
tp244
a(I2
g129
tp245
a(I3
g127
tp246
a(I0
g185
tp247
a(I1
g187
tp248
a(I2
g185
tp249
a(I3
g187
tp250
a(I0
g185
tp251
a(I1
g187
tp252
a(I2
g185
tp253
a(I3
g187
tp254
a(I0
g185
tp255
a(I1
g187
tp256
a(I2
g185
tp257
a(I3
g187
tp258
a(I0
g185
tp259
a(I1
g187
tp260
a(I2
g185
tp261
a(I3
g187
tp262
a(I0
g127
tp263
a(I1
g129
tp264
a(I2
g185
tp265
a(I3
g187
tp266
a(I0
g185
tp267
a(I1
g187
tp268
a(I2
g127
tp269
a(I3
g129
tp270
a(I0
g185
tp271
a(I1
g187
tp272
a(I2
g185
tp273
a(I3
g127
tp274
a(I0
g129
tp275
a(I1
g127
tp276
a(I2
g185
tp277
a(I3
g129
tp278
a(I0
g129
tp279
a(I1
g127
tp280
a(I2
g129
tp281
a(I3
g127
tp282
a(I0
g185
tp283
a(I1
g187
tp284
a(I2
g129
tp285
a(I3
g127
tp286
a(I0
g185
tp287
a(I1
g187
tp288
a(I2
g185
tp289
a(I3
g129
tp290
a(I0
g185
tp291
a(I1
g187
tp292
a(I2
g185
tp293
a(I3
g127
tp294
a(I0
g129
tp295
a(I1
g127
tp296
a(I2
g185
tp297
a(I3
g129
tp298
a(I0
g129
tp299
a(I1
g127
tp300
a(I2
g129
tp301
a(I3
g129
tp302
a(I0
g129
tp303
a(I1
g127
tp304
a(I2
g129
tp305
a(I3
g127
tp306
a(I0
g185
tp307
a(I1
g187
tp308
a(I2
g129
tp309
a(I3
g127
tp310
a(I0
g185
tp311
a(I1
g187
tp312
a(I2
g185
tp313
a(I3
g127
tp314
a(I0
g185
tp315
a(I1
g187
tp316
a(I2
g185
tp317
a(I3
g129
tp318
a(I0
g185
tp319
a(I1
g187
tp320
a(I2
g185
tp321
a(I3
g129
tp322
a(I0
g185
tp323
a(I1
g187
tp324
a(I2
g185
tp325
a(I3
g129
tp326
a(I0
g185
tp327
a(I1
g187
tp328
a(I2
g185
tp329
a(I3
g187
tp330
a(I0
g185
tp331
a(I1
g187
tp332
a(I2
g187
tp333
a(I3
g129
tp334
a(I0
g187
tp335
a(I1
g185
tp336
a(I2
g129
tp337
a(I3
g129
tp338
a(I0
g187
tp339
a(I1
g185
tp340
a(I2
g129
tp341
a(I3
g129
tp342
a(I0
g187
tp343
a(I1
g185
tp344
a(I2
g185
tp345
a(I3
g129
tp346
a(I0
g129
tp347
a(I1
g127
tp348
a(I2
g185
tp349
a(I3
g187
tp350
a(I0
g129
tp351
a(I1
g127
tp352
a(I2
g185
tp353
a(I3
g187
tp354
a(I0
g185
tp355
a(I1
g187
tp356
a(I2
g185
tp357
a(I3
g187
tp358
a(I0
g185
tp359
a(I1
g187
tp360
a(I2
g185
tp361
a(I3
g129
tp362
a(I0
g187
tp363
a(I1
g187
tp364
a(I2
g187
tp365
a(I3
g129
tp366
a(I0
g187
tp367
a(I1
g187
tp368
a(I2
g187
tp369
a(I3
g185
tp370
a(I0
g187
tp371
a(I1
g187
tp372
a(I2
g187
tp373
a(I3
g185
tp374
a(I0
g187
tp375
a(I1
g185
tp376
a(I2
g187
tp377
a(I3
g129
tp378
a(I0
g187
tp379
a(I1
g185
tp380
a(I2
g187
tp381
a(I3
g129
tp382
a(I0
g187
tp383
a(I1
g185
tp384
a(I2
g127
tp385
a(I3
g127
tp386
a(I0
g185
tp387
a(I1
g185
tp388
a(I2
g127
tp389
a(I3
g129
tp390
a(I0
g187
tp391
a(I1
g185
tp392
a(I2
g127
tp393
a(I3
g127
tp394
a(I0
g185
tp395
a(I1
g129
tp396
a(I2
g127
tp397
a(I3
g129
tp398
a(I0
g187
tp399
a(I1
g129
tp400
a(I2
g127
tp401
a(I3
g127
tp402
a(I0
g185
tp403
a(I1
g185
tp404
a(I2
g127
tp405
a(I3
g129
tp406
a(I0
g187
tp407
a(I1
g185
tp408
a(I2
g127
tp409
a(I3
g127
tp410
a(I0
g185
tp411
a(I1
g129
tp412
a(I2
g127
tp413
a(I3
g129
tp414
a(I0
g187
tp415
a(I1
g129
tp416
a(I2
g127
tp417
a(I3
g185
tp418
a(I0
g185
tp419
a(I1
g187
tp420
a(I2
g127
tp421
a(I3
g187
tp422
a(I0
g187
tp423
a(I1
g185
tp424
a(I2
g127
tp425
a(I3
g127
tp426
a(I0
g185
tp427
a(I1
g187
tp428
a(I2
g127
tp429
a(I3
g129
tp430
a(I0
g187
tp431
a(I1
g185
tp432
a(I2
g127
tp433
a(I3
g127
tp434
a(I0
g185
tp435
a(I1
g187
tp436
a(I2
g127
tp437
a(I3
g129
tp438
a(I0
g187
tp439
a(I1
g185
tp440
a(I2
g127
tp441
a(I3
g127
tp442
a(I0
g185
tp443
a(I1
g187
tp444
a(I2
g185
tp445
a(I3
g129
tp446
a(I0
g187
tp447
a(I1
g185
tp448
a(I2
g185
tp449
a(I3
g127
tp450
a(I0
g185
tp451
a(I1
g187
tp452
a(I2
g129
tp453
a(I3
g129
tp454
a(I0
g187
tp455
a(I1
g185
tp456
a(I2
g185
tp457
a(I3
g127
tp458
a(I0
g185
tp459
a(I1
g187
tp460
a(I2
g129
tp461
a(I3
g129
tp462
a(I0
g187
tp463
a(I1
g185
tp464
a(I2
g129
tp465
a(I3
g127
tp466
a(I0
g185
tp467
a(I1
g187
tp468
a(I2
g129
tp469
a(I3
g129
tp470
a(I0
g187
tp471
a(I1
g185
tp472
a(I2
g129
tp473
a(I3
g127
tp474
a(I0
g185
tp475
a(I1
g187
tp476
a(I2
g129
tp477
a(I3
g129
tp478
a(I0
g187
tp479
a(I1
g185
tp480
a(I2
g129
tp481
a(I3
g127
tp482
a(I0
g185
tp483
a(I1
g187
tp484
a(I2
g129
tp485
a(I3
g129
tp486
a(I0
g187
tp487
a(I1
g185
tp488
a(I2
g185
tp489
a(I3
g127
tp490
a(I0
g185
tp491
a(I1
g187
tp492
a(I2
g185
tp493
a(I3
g129
tp494
a(I0
g187
tp495
a(I1
g185
tp496
a(I2
g129
tp497
a(I3
g127
tp498
a(I0
g185
tp499
a(I1
g187
tp500
a(I2
g185
tp501
a(I3
g129
tp502
a(I0
g187
tp503
a(I1
g185
tp504
a(I2
g185
tp505
a(I3
g127
tp506
a(I0
g185
tp507
a(I1
g187
tp508
a(I2
g185
tp509
a(I3
g129
tp510
a(I0
g187
tp511
a(I1
g185
tp512
a(I2
g185
tp513
a(I3
g127
tp514
a(I0
g185
tp515
a(I1
g187
tp516
a(I2
g185
tp517
a(I3
g129
tp518
a(I0
g187
tp519
a(I1
g185
tp520
a(I2
g129
tp521
a(I3
g127
tp522
a(I0
g185
tp523
a(I1
g187
tp524
a(I2
g129
tp525
a(I3
g129
tp526
a(I0
g187
tp527
a(I1
g185
tp528
a(I2
g129
tp529
a(I3
g185
tp530
a(I0
g185
tp531
a(I1
g187
tp532
a(I2
g129
tp533
a(I3
g187
tp534
a(I0
g187
tp535
a(I1
g185
tp536
a(I2
g185
tp537
a(I3
g127
tp538
a(I0
g185
tp539
a(I1
g187
tp540
a(I2
g129
tp541
a(I3
g129
tp542
a(I0
g187
tp543
a(I1
g185
tp544
a(I2
g129
tp545
a(I3
g127
tp546
a(I0
g185
tp547
a(I1
g187
tp548
a(I2
g185
tp549
a(I3
g129
tp550
a(I0
g187
tp551
a(I1
g185
tp552
a(I2
g185
tp553
a(I3
g127
tp554
a(I0
g185
tp555
a(I1
g187
tp556
a(I2
g185
tp557
a(I3
g129
tp558
a(I0
g187
tp559
a(I1
g185
tp560
a(I2
g185
tp561
a(I3
g127
tp562
a(I0
g185
tp563
a(I1
g185
tp564
a(I2
g185
tp565
a(I3
g129
tp566
a(I0
g187
tp567
a(I1
g185
tp568
a(I2
g187
tp569
a(I3
g127
tp570
a(I0
g185
tp571
a(I1
g187
tp572
a(I2
g185
tp573
a(I3
g129
tp574
a(I0
g187
tp575
a(I1
g187
tp576
a(I2
g187
tp577
a(I3
g127
tp578
a(I0
g185
tp579
a(I1
g187
tp580
a(I2
g185
tp581
a(I3
g129
tp582
a(I0
g187
tp583
a(I1
g187
tp584
a(I2
g187
tp585
a(I3
g127
tp586
a(I0
g185
tp587
a(I1
g187
tp588
a(I2
g185
tp589
a(I3
g129
tp590
a(I0
g187
tp591
a(I1
g129
tp592
a(I2
g187
tp593
a(I3
g187
tp594
a(I0
g187
tp595
a(I1
g129
tp596
a(I2
g187
tp597
a(I3
g185
tp598
a(I0
g185
tp599
a(I1
g187
tp600
a(I2
g185
tp601
a(I3
g187
tp602
a(I0
g187
tp603
a(I1
g185
tp604
a(I2
g187
tp605
a(I3
g185
tp606
a(I0
g185
tp607
a(I1
g129
tp608
a(I2
g185
tp609
a(I3
g127
tp610
a(I0
g185
tp611
a(I1
g127
tp612
a(I2
g185
tp613
a(I3
g129
tp614
a(I0
g187
tp615
a(I1
g185
tp616
a(I2
g187
tp617
a(I3
g127
tp618
a(I0
g185
tp619
a(I1
g185
tp620
a(I2
g185
tp621
a(I3
g129
tp622
a(I0
g187
tp623
a(I1
g187
tp624
a(I2
g187
tp625
a(I3
g127
tp626
a(I0
g185
tp627
a(I1
g187
tp628
a(I2
g185
tp629
a(I3
g129
tp630
a(I0
g187
tp631
a(I1
g129
tp632
a(I2
g187
tp633
a(I3
g127
tp634
a(I0
g185
tp635
a(I1
g129
tp636
a(I2
g185
tp637
a(I3
g129
tp638
a(I0
g187
tp639
a(I1
g185
tp640
a(I2
g187
tp641
a(I3
g127
tp642
a(I0
g185
tp643
a(I1
g129
tp644
a(I2
g185
tp645
a(I3
g129
tp646
a(I0
g187
tp647
a(I1
g129
tp648
a(I2
g187
tp649
a(I3
g127
tp650
a(I0
g185
tp651
a(I1
g185
tp652
a(I2
g185
tp653
a(I3
g129
tp654
a(I0
g187
tp655
a(I1
g185
tp656
a(I2
g187
tp657
a(I3
g127
tp658
a(I0
g185
tp659
a(I1
g185
tp660
a(I2
g187
tp661
a(I3
g129
tp662
a(I0
g187
tp663
a(I1
g129
tp664
a(I2
g187
tp665
a(I3
g127
tp666
a(I0
g187
tp667
a(I1
g185
tp668
a(I2
g185
tp669
a(I3
g127
tp670
a(I0
g185
tp671
a(I1
g187
tp672
a(I2
g187
tp673
a(I3
g187
tp674
a(I0
g187
tp675
a(I1
g127
tp676
a(I2
g185
tp677
a(I3
g187
tp678
a(I0
g185
tp679
a(I1
g187
tp680
a(I2
g187
tp681
a(I3
g185
tp682
a(I0
g185
tp683
a(I1
g187
tp684
a(I2
g187
tp685
a(I3
g185
tp686
a(I0
g185
tp687
a(I1
g129
tp688
a(I2
g187
tp689
a(I3
g129
tp690
a(I0
g187
tp691
a(I1
g129
tp692
a(I2
g127
tp693
a(I3
g129
tp694
a(I0
g187
tp695
a(I1
g187
tp696
a(I2
g127
tp697
a(I3
g127
tp698
a(I0
g187
tp699
a(I1
g185
tp700
a(I2
g127
tp701
a(I3
g127
tp702
a(I0
g187
tp703
a(I1
g127
tp704
a(I2
g185
tp705
a(I3
g129
tp706
a(I0
g187
tp707
a(I1
g127
tp708
a(I2
g185
tp709
a(I3
g127
tp710
a(I0
g187
tp711
a(I1
g185
tp712
a(I2
g127
tp713
a(I3
g187
tp714
a(I0
g127
tp715
a(I1
g185
tp716
a(I2
g127
tp717
a(I3
g187
tp718
a(I0
g127
tp719
a(I1
g129
tp720
a(I2
g185
tp721
a(I3
g185
tp722
a(I0
g127
tp723
a(I1
g185
tp724
a(I2
g185
tp725
a(I3
g187
tp726
a(I0
g129
tp727
a(I1
g187
tp728
a(I2
g129
tp729
a(I3
g127
tp730
a(I0
g129
tp731
a(I1
g129
tp732
a(I2
g129
tp733
a(I3
g127
tp734
a(I0
g129
tp735
a(I1
g129
tp736
a(I2
g129
tp737
a(I3
g185
tp738
a(I0
g185
tp739
a(I1
g129
tp740
a(I2
g185
tp741
a(I3
g187
tp742
a(I0
g185
tp743
a(I1
g129
tp744
a(I2
g187
tp745
a(I3
g185
tp746
a(I0
g185
tp747
a(I1
g129
tp748
a(I2
g185
tp749
a(I3
g187
tp750
a(I0
g185
tp751
a(I1
g129
tp752
a(I2
g187
tp753
a(I3
g185
tp754
a(I0
g185
tp755
a(I1
g129
tp756
a(I2
g185
tp757
a(I3
g187
tp758
a(I0
g185
tp759
a(I1
g129
tp760
a(I2
g187
tp761
a(I3
g129
tp762
a(I0
g185
tp763
a(I1
g129
tp764
a(I2
g185
tp765
a(I3
g129
tp766
a(I0
g185
tp767
a(I1
g129
tp768
a(I2
g187
tp769
a(I3
g185
tp770
a(I0
g187
tp771
a(I1
g129
tp772
a(I2
g127
tp773
a(I3
g185
tp774
a(I0
g187
tp775
a(I1
g129
tp776
a(I2
g127
tp777
a(I3
g129
tp778
a(I0
g187
tp779
a(I1
g129
tp780
a(I2
g185
tp781
a(I3
g129
tp782
a(I0
g187
tp783
a(I1
g129
tp784
a(I2
g185
tp785
a(I3
g187
tp786
a(I0
g187
tp787
a(I1
g187
tp788
a(I2
g129
tp789
a(I3
g185
tp790
a(I0
g187
tp791
a(I1
g187
tp792
a(I2
g129
tp793
a(I3
g127
tp794
a(I0
g187
tp795
a(I1
g127
tp796
a(I2
g187
tp797
a(I3
g127
tp798
a(I0
g185
tp799
a(I1
g187
tp800
a(I2
g187
tp801
a(I3
g187
tp802
a(I0
g185
tp803
a(I1
g127
tp804
a(I2
g127
tp805
a(I3
g187
tp806
a(I0
g185
tp807
a(I1
g127
tp808
a(I2
g127
tp809
a(I3
g127
tp810
a(I0
g185
tp811
a(I1
g127
tp812
a(I2
g129
tp813
a(I3
g129
tp814
a(I0
g185
tp815
a(I1
g127
tp816
a(I2
g127
tp817
a(I3
g185
tp818
a(I0
g185
tp819
a(I1
g127
tp820
a(I2
g127
tp821
a(I3
g185
tp822
a(I0
g187
tp823
a(I1
g127
tp824
a(I2
g187
tp825
a(I3
g129
tp826
a(I0
g187
tp827
a(I1
g127
tp828
a(I2
g185
tp829
a(I3
g129
tp830
a(I0
g187
tp831
a(I1
g187
tp832
a(I2
g129
tp833
a(I3
g127
tp834
a(I0
g187
tp835
a(I1
g187
tp836
a(I2
g129
tp837
a(I3
g127
tp838
a(I0
g185
tp839
a(I1
g127
tp840
a(I2
g127
tp841
a(I3
g187
tp842
a(I0
g185
tp843
a(I1
g187
tp844
a(I2
g127
tp845
a(I3
g185
tp846
a(I0
g185
tp847
a(I1
g187
tp848
a(I2
g187
tp849
a(I3
g129
tp850
a(I0
g187
tp851
a(I1
g187
tp852
a(I2
g185
tp853
a(I3
g129
tp854
a(I0
g187
tp855
a(I1
g187
tp856
a(I2
g129
tp857
a(I3
g127
tp858
a(I0
g187
tp859
a(I1
g187
tp860
a(I2
g129
tp861
a(I3
g127
tp862
a(I0
g185
tp863
a(I1
g129
tp864
a(I2
g127
tp865
a(I3
g187
tp866
a(I0
g185
tp867
a(I1
g187
tp868
a(I2
g127
tp869
a(I3
g185
tp870
a(I0
g185
tp871
a(I1
g187
tp872
a(I2
g187
tp873
a(I3
g129
tp874
a(I0
g187
tp875
a(I1
g127
tp876
a(I2
g185
tp877
a(I3
g129
tp878
a(I0
g187
tp879
a(I1
g127
tp880
a(I2
g129
tp881
a(I3
g127
tp882
a(I0
g187
tp883
a(I1
g187
tp884
a(I2
g129
tp885
a(I3
g127
tp886
a(I0
g185
tp887
a(I1
g187
tp888
a(I2
g127
tp889
a(I3
g187
tp890
a(I0
g185
tp891
a(I1
g187
tp892
a(I2
g127
tp893
a(I3
g185
tp894
a(I0
g185
tp895
a(I1
g129
tp896
a(I2
g187
tp897
a(I3
g129
tp898
a(I0
g187
tp899
a(I1
g129
tp900
a(I2
g185
tp901
a(I3
g129
tp902
a(I0
g187
tp903
a(I1
g129
tp904
a(I2
g129
tp905
a(I3
g127
tp906
a(I0
g187
tp907
a(I1
g187
tp908
a(I2
g127
tp909
a(I3
g127
tp910
a(I0
g187
tp911
a(I1
g185
tp912
a(I2
g129
tp913
a(I3
g187
tp914
a(I0
g185
tp915
a(I1
g127
tp916
a(I2
g127
tp917
a(I3
g185
tp918
a(I0
g185
tp919
a(I1
g127
tp920
a(I2
g129
tp921
a(I3
g187
tp922
a(I0
g185
tp923
a(I1
g127
tp924
a(I2
g127
tp925
a(I3
g185
tp926
a(I0
g185
tp927
a(I1
g127
tp928
a(I2
g187
tp929
a(I3
g129
tp930
a(I0
g187
tp931
a(I1
g187
tp932
a(I2
g185
tp933
a(I3
g129
tp934
a(I0
g187
tp935
a(I1
g187
tp936
a(I2
g129
tp937
a(I3
g127
tp938
a(I0
g187
tp939
a(I1
g187
tp940
a(I2
g129
tp941
a(I3
g127
tp942
a(I0
g185
tp943
a(I1
g187
tp944
a(I2
g127
tp945
a(I3
g187
tp946
a(I0
g185
tp947
a(I1
g187
tp948
a(I2
g127
tp949
a(I3
g185
tp950
a(I0
g185
tp951
a(I1
g187
tp952
a(I2
g187
tp953
a(I3
g129
tp954
a(I0
g187
tp955
a(I1
g187
tp956
a(I2
g185
tp957
a(I3
g129
tp958
a(I0
g187
tp959
a(I1
g187
tp960
a(I2
g129
tp961
a(I3
g127
tp962
a(I0
g187
tp963
a(I1
g187
tp964
a(I2
g129
tp965
a(I3
g127
tp966
a(I0
g185
tp967
a(I1
g127
tp968
a(I2
g127
tp969
a(I3
g187
tp970
a(I0
g185
tp971
a(I1
g127
tp972
a(I2
g127
tp973
a(I3
g185
tp974
a(I0
g185
tp975
a(I1
g129
tp976
a(I2
g187
tp977
a(I3
g129
tp978
a(I0
g187
tp979
a(I1
g187
tp980
a(I2
g185
tp981
a(I3
g129
tp982
a(I0
g187
tp983
a(I1
g187
tp984
a(I2
g129
tp985
a(I3
S'Stop'
p986
tp987
a(I0
g187
tp988
a(I1
g129
tp989
a(I2
g129
tp990
a(I3
g127
tp991
a(I0
g185
tp992
a(I1
g127
tp993
a(I2
g127
tp994
a(I3
g127
tp995
a(I0
g185
tp996
a(I1
g127
tp997
a(I2
g127
tp998
a(I3
g129
tp999
a(I0
g187
tp1000
a(I1
g127
tp1001
a(I2
g129
tp1002
a(I3
g127
tp1003
a(I0
g185
tp1004
a(I1
g127
tp1005
a(I2
g127
tp1006
a(I3
g129
tp1007
a(I0
g187
tp1008
a(I1
g129
tp1009
a(I2
g129
tp1010
a(I3
g127
tp1011
a(I0
g185
tp1012
a(I1
g129
tp1013
a(I2
g127
tp1014
a(I3
g129
tp1015
a(I0
g187
tp1016
a(I1
g129
tp1017
a(I2
g129
tp1018
a(I3
g127
tp1019
a(I0
g185
tp1020
a(I1
g185
tp1021
a(I2
g127
tp1022
a(I3
g129
tp1023
a(I0
g187
tp1024
a(I1
g185
tp1025
a(I2
g129
tp1026
a(I3
g127
tp1027
a(I0
g185
tp1028
a(I1
g129
tp1029
a(I2
g127
tp1030
a(I3
g129
tp1031
a(I0
g187
tp1032
a(I1
g185
tp1033
a(I2
g129
tp1034
a(I3
g127
tp1035
a(I0
g185
tp1036
a(I1
g185
tp1037
a(I2
g127
tp1038
a(I3
g129
tp1039
a(I0
g187
tp1040
a(I1
g185
tp1041
a(I2
g129
tp1042
a(I3
g127
tp1043
a(I0
g185
tp1044
a(I1
g185
tp1045
a(I2
g127
tp1046
a(I3
g129
tp1047
a(I0
g187
tp1048
a(I1
g129
tp1049
a(I2
g129
tp1050
a(I3
g127
tp1051
a(I0
g185
tp1052
a(I1
g129
tp1053
a(I2
g127
tp1054
a(I3
g129
tp1055
a(I0
g187
tp1056
a(I1
g129
tp1057
a(I2
g129
tp1058
a(I3
g129
tp1059
a(I0
g187
tp1060
a(I1
g129
tp1061
a(I2
g129
tp1062
a(I3
g127
tp1063
a(I0
g185
tp1064
a(I1
g185
tp1065
a(I2
g127
tp1066
a(I3
g127
tp1067
a(I0
g185
tp1068
a(I1
g185
tp1069
a(I2
g127
tp1070
a(I3
g129
tp1071
a(I0
g187
tp1072
a(I1
g187
tp1073
a(I2
g187
tp1074
a(I3
g127
tp1075
a(I0
g187
tp1076
a(I1
g187
tp1077
a(I2
g187
tp1078
a(I3
g187
tp1079
a(I0
g187
tp1080
a(I1
g127
tp1081
a(I2
g187
tp1082
a(I3
g187
tp1083
a(I0
g187
tp1084
a(I1
g127
tp1085
a(I2
g127
tp1086
a(I3
g185
tp1087
a(I0
g187
tp1088
a(I1
g127
tp1089
a(I2
g127
tp1090
a(I3
g187
tp1091
a(I0
g127
tp1092
a(I1
g127
tp1093
a(I2
g187
tp1094
a(I3
g127
tp1095
a(I0
g127
tp1096
a(I1
g185
tp1097
a(I2
g127
tp1098
a(I3
g127
tp1099
a(I0
g127
tp1100
a(I1
g185
tp1101
a(I2
g127
tp1102
a(I3
g185
tp1103
a(I0
g187
tp1104
a(I1
g185
tp1105
a(I2
g127
tp1106
a(I3
g185
tp1107
a(I0
g127
tp1108
a(I1
g185
tp1109
a(I2
g127
tp1110
a(I3
g185
tp1111
a(I0
g127
tp1112
a(I1
g185
tp1113
a(I2
g129
tp1114
a(I3
g127
tp1115
a(I0
g129
tp1116
a(I1
g187
tp1117
a(I2
g127
tp1118
a(I3
g129
tp1119
a(I0
g127
tp1120
a(I1
g185
tp1121
a(I2
g129
tp1122
a(I3
g187
tp1123
a(I0
g129
tp1124
a(I1
g187
tp1125
a(I2
g127
tp1126
a(I3
g185
tp1127
a(I0
g127
tp1128
a(I1
g185
tp1129
a(I2
g129
tp1130
a(I3
g127
tp1131
a(I0
g129
tp1132
a(I1
g187
tp1133
a(I2
g127
tp1134
a(I3
g129
tp1135
a(I0
g127
tp1136
a(I1
g185
tp1137
a(I2
g129
tp1138
a(I3
g187
tp1139
a(I0
g129
tp1140
a(I1
g187
tp1141
a(I2
g127
tp1142
a(I3
g185
tp1143
a(I0
g127
tp1144
a(I1
g185
tp1145
a(I2
g129
tp1146
a(I3
g187
tp1147
a(I0
g129
tp1148
a(I1
g187
tp1149
a(I2
g127
tp1150
a(I3
g185
tp1151
a(I0
g127
tp1152
a(I1
g185
tp1153
a(I2
g129
tp1154
a(I3
g127
tp1155
a(I0
g129
tp1156
a(I1
g187
tp1157
a(I2
g127
tp1158
a(I3
g129
tp1159
a(I0
g127
tp1160
a(I1
g185
tp1161
a(I2
g129
tp1162
a(I3
g187
tp1163
a(I0
g129
tp1164
a(I1
g187
tp1165
a(I2
g127
tp1166
a(I3
g187
tp1167
a(I0
g127
tp1168
a(I1
g185
tp1169
a(I2
g129
tp1170
a(I3
g187
tp1171
a(I0
g129
tp1172
a(I1
g187
tp1173
a(I2
g127
tp1174
a(I3
g185
tp1175
a(I0
g127
tp1176
a(I1
g185
tp1177
a(I2
g129
tp1178
a(I3
g187
tp1179
a(I0
g129
tp1180
a(I1
g187
tp1181
a(I2
g127
tp1182
a(I3
g185
tp1183
a(I0
g127
tp1184
a(I1
g185
tp1185
a(I2
g129
tp1186
a(I3
g185
tp1187
a(I0
g129
tp1188
a(I1
g187
tp1189
a(I2
g127
tp1190
a(I3
g185
tp1191
a(I0
g127
tp1192
a(I1
g185
tp1193
a(I2
g129
tp1194
a(I3
g187
tp1195
a(I0
g129
tp1196
a(I1
g187
tp1197
a(I2
g127
tp1198
a(I3
g187
tp1199
a(I0
g127
tp1200
a(I1
g185
tp1201
a(I2
g129
tp1202
a(I3
g185
tp1203
a(I0
g129
tp1204
a(I1
g187
tp1205
a(I2
g127
tp1206
a(I3
g185
tp1207
a(I0
g127
tp1208
a(I1
g185
tp1209
a(I2
g129
tp1210
a(I3
g986
tp1211
a(I0
g129
tp1212
a(I1
g187
tp1213
a(I2
g127
tp1214
a(I3
g187
tp1215
a(I0
g127
tp1216
a(I1
g185
tp1217
a(I2
g129
tp1218
a(I3
g187
tp1219
a(I0
g129
tp1220
a(I1
g187
tp1221
a(I2
g127
tp1222
a(I3
g185
tp1223
a(I0
g127
tp1224
a(I1
g185
tp1225
a(I2
g129
tp1226
a(I3
g185
tp1227
a(I0
g129
tp1228
a(I1
g187
tp1229
a(I2
g127
tp1230
a(I3
g127
tp1231
a(I0
g127
tp1232
a(I1
g185
tp1233
a(I2
g129
tp1234
a(I3
g129
tp1235
a(I0
g129
tp1236
a(I1
g187
tp1237
a(I2
g127
tp1238
a(I3
g127
tp1239
a(I0
g127
tp1240
a(I1
g185
tp1241
a(I2
g129
tp1242
a(I3
g127
tp1243
a(I0
g129
tp1244
a(I1
g187
tp1245
a(I2
g127
tp1246
a(I3
g129
tp1247
a(I0
g127
tp1248
a(I1
g185
tp1249
a(I2
g129
tp1250
a(I3
g127
tp1251
a(I0
g129
tp1252
a(I1
g187
tp1253
a(I2
g127
tp1254
a(I3
g127
tp1255
a(I0
g127
tp1256
a(I1
g185
tp1257
a(I2
g129
tp1258
a(I3
g129
tp1259
a(I0
g129
tp1260
a(I1
g187
tp1261
a(I2
g127
tp1262
a(I3
g127
tp1263
a(I0
g127
tp1264
a(I1
g185
tp1265
a(I2
g129
tp1266
a(I3
g127
tp1267
a(I0
g129
tp1268
a(I1
g187
tp1269
a(I2
g127
tp1270
a(I3
g187
tp1271
a(I0
g127
tp1272
a(I1
g185
tp1273
a(I2
g129
tp1274
a(I3
g185
tp1275
a(I0
g129
tp1276
a(I1
g187
tp1277
a(I2
g127
tp1278
a(I3
g129
tp1279
a(I0
g127
tp1280
a(I1
g185
tp1281
a(I2
g129
tp1282
a(I3
g129
tp1283
a(I0
g129
tp1284
a(I1
g187
tp1285
a(I2
g127
tp1286
a(I3
g129
tp1287
a(I0
g127
tp1288
a(I1
g185
tp1289
a(I2
g129
tp1290
a(I3
g127
tp1291
a(I0
g129
tp1292
a(I1
g187
tp1293
a(I2
g127
tp1294
a(I3
g127
tp1295
a(I0
g127
tp1296
a(I1
g185
tp1297
a(I2
g129
tp1298
a(I3
g129
tp1299
a(I0
g129
tp1300
a(I1
g187
tp1301
a(I2
g127
tp1302
a(I3
g129
tp1303
a(I0
g127
tp1304
a(I1
g185
tp1305
a(I2
g129
tp1306
a(I3
g127
tp1307
a(I0
g129
tp1308
a(I1
g187
tp1309
a(I2
g127
tp1310
a(I3
g129
tp1311
a(I0
g127
tp1312
a(I1
g185
tp1313
a(I2
g129
tp1314
a(I3
g127
tp1315
a(I0
g129
tp1316
a(I1
g187
tp1317
a(I2
g127
tp1318
a(I3
g127
tp1319
a(I0
g127
tp1320
a(I1
g185
tp1321
a(I2
g129
tp1322
a(I3
g127
tp1323
a(I0
g129
tp1324
a(I1
g187
tp1325
a(I2
g127
tp1326
a(I3
g187
tp1327
a(I0
g127
tp1328
a(I1
g185
tp1329
a(I2
g129
tp1330
a(I3
g185
tp1331
asS'length'
p1332
I1200
sS'agents'
p1333
(lp1334
(igame
Agent
p1335
(dp1336
S'index'
p1337
I0
sba(igame
Agent
p1338
(dp1339
g1337
I0
sba(igame
Agent
p1340
(dp1341
g1337
I0
sba(igame
Agent
p1342
(dp1343
g1337
I0
sbasS'redTeamName'
p1344
S'Red'
p1345
s.